target datalayout = "e-m:e-p270:32:32-p271:32:32-p272:64:64-i64:64-i128:128-f80:128-n8:16:32:64-S128"
target triple = "x86_64-pc-linux-gnu"

%struct._xmlNode = type { ptr, i32, ptr, ptr, ptr, ptr, ptr, ptr, ptr, ptr, ptr, ptr, ptr, ptr, i16, i16 }
%struct._xmlNs = type { ptr, i32, ptr, ptr, ptr, ptr }

@xmlFree = external global ptr, align 8
@.str.6 = private unnamed_addr constant [6 x i8] c"xmlns\00", align 1
@.str.24 = private unnamed_addr constant [7 x i8] c"xmlns:\00", align 1

; Function Attrs: nounwind uwtable
define internal ptr @dom_get_dom1_attribute(ptr noundef %0, ptr noundef %1) #0 {
  %3 = alloca ptr, align 8
  %4 = alloca ptr, align 8
  %5 = alloca ptr, align 8
  %6 = alloca i32, align 4
  %7 = alloca ptr, align 8
  %8 = alloca ptr, align 8
  %9 = alloca ptr, align 8
  %10 = alloca ptr, align 8
  store ptr %0, ptr %4, align 8
  store ptr %1, ptr %5, align 8
  %11 = load ptr, ptr %5, align 8
  %12 = call ptr @xmlSplitQName3(ptr noundef %11, ptr noundef %6)
  store ptr %12, ptr %7, align 8
  %13 = load ptr, ptr %7, align 8
  %14 = icmp ne ptr %13, null
  br i1 %14, label %15, label %69

15:                                               ; preds = %2
  %16 = load ptr, ptr %5, align 8
  %17 = load i32, ptr %6, align 4
  %18 = add nsw i32 %17, 1
  %19 = sext i32 %18 to i64
  %20 = call i32 @strncmp(ptr noundef %16, ptr noundef @.str.24, i64 noundef %19) #8
  %21 = icmp eq i32 %20, 0
  br i1 %21, label %22, label %43

22:                                               ; preds = %15
  %23 = load ptr, ptr %4, align 8
  %24 = getelementptr inbounds %struct._xmlNode, ptr %23, i32 0, i32 12
  %25 = load ptr, ptr %24, align 8
  store ptr %25, ptr %8, align 8
  br label %26

26:                                               ; preds = %37, %22
  %27 = load ptr, ptr %8, align 8
  %28 = icmp ne ptr %27, null
  br i1 %28, label %29, label %41

29:                                               ; preds = %26
  %30 = load ptr, ptr %8, align 8
  %31 = getelementptr inbounds %struct._xmlNs, ptr %30, i32 0, i32 3
  %32 = load ptr, ptr %31, align 8
  %33 = load ptr, ptr %7, align 8
  %34 = call i32 @xmlStrEqual(ptr noundef %32, ptr noundef %33)
  %35 = icmp ne i32 %34, 0
  br i1 %35, label %36, label %37

36:                                               ; preds = %29
  br label %41

37:                                               ; preds = %29
  %38 = load ptr, ptr %8, align 8
  %39 = getelementptr inbounds %struct._xmlNs, ptr %38, i32 0, i32 0
  %40 = load ptr, ptr %39, align 8
  store ptr %40, ptr %8, align 8
  br label %26

41:                                               ; preds = %36, %26
  %42 = load ptr, ptr %8, align 8
  store ptr %42, ptr %3, align 8
  br label %97

43:                                               ; preds = %15
  %44 = load ptr, ptr %5, align 8
  %45 = load i32, ptr %6, align 4
  %46 = call ptr @xmlStrndup(ptr noundef %44, i32 noundef %45)
  store ptr %46, ptr %9, align 8
  %47 = load ptr, ptr %4, align 8
  %48 = getelementptr inbounds %struct._xmlNode, ptr %47, i32 0, i32 8
  %49 = load ptr, ptr %48, align 8
  %50 = load ptr, ptr %4, align 8
  %51 = load ptr, ptr %9, align 8
  %52 = call ptr @xmlSearchNs(ptr noundef %49, ptr noundef %50, ptr noundef %51)
  store ptr %52, ptr %8, align 8
  %53 = load ptr, ptr %9, align 8
  %54 = icmp ne ptr %53, null
  br i1 %54, label %55, label %58

55:                                               ; preds = %43
  %56 = load ptr, ptr @xmlFree, align 8
  %57 = load ptr, ptr %9, align 8
  call void %56(ptr noundef %57)
  br label %58

58:                                               ; preds = %55, %43
  %59 = load ptr, ptr %8, align 8
  %60 = icmp ne ptr %59, null
  br i1 %60, label %61, label %68

61:                                               ; preds = %58
  %62 = load ptr, ptr %4, align 8
  %63 = load ptr, ptr %7, align 8
  %64 = load ptr, ptr %8, align 8
  %65 = getelementptr inbounds %struct._xmlNs, ptr %64, i32 0, i32 2
  %66 = load ptr, ptr %65, align 8
  %67 = call ptr @xmlHasNsProp(ptr noundef %62, ptr noundef %63, ptr noundef %66)
  store ptr %67, ptr %3, align 8
  br label %97

68:                                               ; preds = %58
  br label %93

69:                                               ; preds = %2
  %70 = load ptr, ptr %5, align 8
  %71 = call i32 @xmlStrEqual(ptr noundef %70, ptr noundef @.str.6)
  %72 = icmp ne i32 %71, 0
  br i1 %72, label %73, label %92

73:                                               ; preds = %69
  %74 = load ptr, ptr %4, align 8
  %75 = getelementptr inbounds %struct._xmlNode, ptr %74, i32 0, i32 12
  %76 = load ptr, ptr %75, align 8
  store ptr %76, ptr %10, align 8
  br label %77

77:                                               ; preds = %87, %73
  %78 = load ptr, ptr %10, align 8
  %79 = icmp ne ptr %78, null
  br i1 %79, label %80, label %91

80:                                               ; preds = %77
  %81 = load ptr, ptr %10, align 8
  %82 = getelementptr inbounds %struct._xmlNs, ptr %81, i32 0, i32 3
  %83 = load ptr, ptr %82, align 8
  %84 = icmp eq ptr %83, null
  br i1 %84, label %85, label %87

85:                                               ; preds = %80
  %86 = load ptr, ptr %10, align 8
  store ptr %86, ptr %3, align 8
  br label %97

87:                                               ; preds = %80
  %88 = load ptr, ptr %10, align 8
  %89 = getelementptr inbounds %struct._xmlNs, ptr %88, i32 0, i32 0
  %90 = load ptr, ptr %89, align 8
  store ptr %90, ptr %10, align 8
  br label %77

91:                                               ; preds = %77
  store ptr null, ptr %3, align 8
  br label %97

92:                                               ; preds = %69
  br label %93

93:                                               ; preds = %92, %68
  %94 = load ptr, ptr %4, align 8
  %95 = load ptr, ptr %5, align 8
  %96 = call ptr @xmlHasNsProp(ptr noundef %94, ptr noundef %95, ptr noundef null)
  store ptr %96, ptr %3, align 8
  br label %97

97:                                               ; preds = %93, %91, %85, %61, %41
  %98 = load ptr, ptr %3, align 8
  ret ptr %98
}