; Function Attrs: nounwind uwtable
define internal fastcc ptr @dom_get_dom1_attribute(ptr noundef %0, ptr noundef %1) unnamed_addr #0 {
  %3 = alloca i32, align 4
  %4 = call ptr @xmlSplitQName3(ptr noundef %1, ptr noundef nonnull %3) #8
  %.not = icmp eq ptr %4, null
  br i1 %.not, label %30, label %5

5:                                                ; preds = %2
  %6 = load i32, ptr %3, align 4
  %7 = add nsw i32 %6, 1
  %8 = sext i32 %7 to i64
  %9 = call i32 @strncmp(ptr noundef %1, ptr noundef nonnull @.str.24, i64 noundef %8) #9
  %10 = icmp eq i32 %9, 0
  br i1 %10, label %11, label %18

11:                                               ; preds = %5
  %12 = getelementptr inbounds i8, ptr %0, i64 96
  br label %13

13:                                               ; preds = %14, %11
  %.029.in = phi ptr [ %12, %11 ], [ %.029, %14 ]
  %.029 = load ptr, ptr %.029.in, align 8
  %.not37 = icmp eq ptr %.029, null
  br i1 %.not37, label %.loopexit, label %14

14:                                               ; preds = %13
  %15 = getelementptr inbounds i8, ptr %.029, i64 24
  %16 = load ptr, ptr %15, align 8
  %17 = call i32 @xmlStrEqual(ptr noundef %16, ptr noundef nonnull %4) #8
  %.not38 = icmp eq i32 %17, 0
  br i1 %.not38, label %13, label %.loopexit

18:                                               ; preds = %5
  %19 = call ptr @xmlStrndup(ptr noundef %1, i32 noundef %6) #8
  %20 = getelementptr inbounds i8, ptr %0, i64 64
  %21 = load ptr, ptr %20, align 8
  %22 = call ptr @xmlSearchNs(ptr noundef %21, ptr noundef %0, ptr noundef %19) #8
  %.not35 = icmp eq ptr %19, null
  br i1 %.not35, label %25, label %23

23:                                               ; preds = %18
  %24 = load ptr, ptr @xmlFree, align 8
  call void %24(ptr noundef nonnull %19) #8
  br label %25

25:                                               ; preds = %23, %18
  %.not36 = icmp eq ptr %22, null
  br i1 %.not36, label %39, label %26

26:                                               ; preds = %25
  %27 = getelementptr inbounds i8, ptr %22, i64 16
  %28 = load ptr, ptr %27, align 8
  %29 = call ptr @xmlHasNsProp(ptr noundef nonnull %0, ptr noundef nonnull %4, ptr noundef %28) #8
  br label %.loopexit

30:                                               ; preds = %2
  %31 = call i32 @xmlStrEqual(ptr noundef %1, ptr noundef nonnull @.str.6) #8
  %.not33 = icmp eq i32 %31, 0
  br i1 %.not33, label %39, label %32

32:                                               ; preds = %30
  %33 = getelementptr inbounds i8, ptr %0, i64 96
  br label %34

34:                                               ; preds = %35, %32
  %.0.in = phi ptr [ %33, %32 ], [ %.0, %35 ]
  %.0 = load ptr, ptr %.0.in, align 8
  %.not34 = icmp eq ptr %.0, null
  br i1 %.not34, label %.loopexit, label %35

35:                                               ; preds = %34
  %36 = getelementptr inbounds i8, ptr %.0, i64 24
  %37 = load ptr, ptr %36, align 8
  %38 = icmp eq ptr %37, null
  br i1 %38, label %.loopexit, label %34

39:                                               ; preds = %30, %25
  %40 = call ptr @xmlHasNsProp(ptr noundef %0, ptr noundef %1, ptr noundef null) #8
  br label %.loopexit

.loopexit:                                        ; preds = %13, %14, %34, %35, %39, %26
  %.028 = phi ptr [ %29, %26 ], [ %40, %39 ], [ null, %34 ], [ %.0, %35 ], [ null, %13 ], [ %.029, %14 ]
  ret ptr %.028
}